target datalayout = "e-m:e-p270:32:32-p271:32:32-p272:64:64-i64:64-i128:128-f80:128-n8:16:32:64-S128"
target triple = "x86_64-pc-linux-gnu"

%struct.psa_key_attributes_s = type { i16, i16, i32, %struct.psa_key_policy_s, i32 }
%struct.psa_key_policy_s = type { i32, i32, i32 }

; Function Attrs: nounwind uwtable
define internal i32 @psa_export_key_buffer_internal(ptr noundef %0, i64 noundef %1, ptr noundef %2, i64 noundef %3, ptr noundef %4) #0 {
  %6 = alloca i32, align 4
  %7 = alloca ptr, align 8
  %8 = alloca i64, align 8
  %9 = alloca ptr, align 8
  %10 = alloca i64, align 8
  %11 = alloca ptr, align 8
  store ptr %0, ptr %7, align 8, !tbaa !29
  store i64 %1, ptr %8, align 8, !tbaa !20
  store ptr %2, ptr %9, align 8, !tbaa !29
  store i64 %3, ptr %10, align 8, !tbaa !20
  store ptr %4, ptr %11, align 8, !tbaa !32
  %12 = load i64, ptr %8, align 8, !tbaa !20
  %13 = load i64, ptr %10, align 8, !tbaa !20
  %14 = icmp ugt i64 %12, %13
  br i1 %14, label %15, label %16

15:                                               ; preds = %5
  store i32 -138, ptr %6, align 4
  br label %28

16:                                               ; preds = %5
  %17 = load ptr, ptr %9, align 8, !tbaa !29
  %18 = load ptr, ptr %7, align 8, !tbaa !29
  %19 = load i64, ptr %8, align 8, !tbaa !20
  call void @llvm.memcpy.p0.p0.i64(ptr align 1 %17, ptr align 1 %18, i64 %19, i1 false)
  %20 = load ptr, ptr %9, align 8, !tbaa !29
  %21 = load i64, ptr %8, align 8, !tbaa !20
  %22 = getelementptr inbounds nuw i8, ptr %20, i64 %21
  %23 = load i64, ptr %10, align 8, !tbaa !20
  %24 = load i64, ptr %8, align 8, !tbaa !20
  %25 = sub i64 %23, %24
  call void @llvm.memset.p0.i64(ptr align 1 %22, i8 0, i64 %25, i1 false)
  %26 = load i64, ptr %8, align 8, !tbaa !20
  %27 = load ptr, ptr %11, align 8, !tbaa !32
  store i64 %26, ptr %27, align 8, !tbaa !20
  store i32 0, ptr %6, align 4
  br label %28

28:                                               ; preds = %16, %15
  %29 = load i32, ptr %6, align 4
  ret i32 %29
}

; Function Attrs: nounwind uwtable
define internal i32 @key_type_is_raw_bytes(i16 noundef zeroext %0) #0 {
  %2 = alloca i16, align 2
  store i16 %0, ptr %2, align 2, !tbaa !18
  %3 = load i16, ptr %2, align 2, !tbaa !18
  %4 = zext i16 %3 to i32
  %5 = and i32 %4, 28672
  %6 = icmp eq i32 %5, 4096
  br i1 %6, label %12, label %7

7:                                                ; preds = %1
  %8 = load i16, ptr %2, align 2, !tbaa !18
  %9 = zext i16 %8 to i32
  %10 = and i32 %9, 28672
  %11 = icmp eq i32 %10, 8192
  br label %12

12:                                               ; preds = %7, %1
  %13 = phi i1 [ true, %1 ], [ %11, %7 ]
  %14 = zext i1 %13 to i32
  ret i32 %14
}

; Function Attrs: nounwind uwtable
define hidden i32 @psa_export_key_internal(ptr noundef %0, ptr noundef %1, i64 noundef %2, ptr noundef %3, i64 noundef %4, ptr noundef %5) #0 {
  %7 = alloca i32, align 4
  %8 = alloca ptr, align 8
  %9 = alloca ptr, align 8
  %10 = alloca i64, align 8
  %11 = alloca ptr, align 8
  %12 = alloca i64, align 8
  %13 = alloca ptr, align 8
  %14 = alloca i16, align 2
  %15 = alloca i32, align 4
  store ptr %0, ptr %8, align 8, !tbaa !30
  store ptr %1, ptr %9, align 8, !tbaa !29
  store i64 %2, ptr %10, align 8, !tbaa !20
  store ptr %3, ptr %11, align 8, !tbaa !29
  store i64 %4, ptr %12, align 8, !tbaa !20
  store ptr %5, ptr %13, align 8, !tbaa !32
  call void @llvm.lifetime.start.p0(i64 2, ptr %14) #8
  %16 = load ptr, ptr %8, align 8, !tbaa !30
  %17 = getelementptr inbounds nuw %struct.psa_key_attributes_s, ptr %16, i32 0, i32 0
  %18 = load i16, ptr %17, align 4, !tbaa !34
  store i16 %18, ptr %14, align 2, !tbaa !18
  %19 = load i16, ptr %14, align 2, !tbaa !18
  %20 = call i32 @key_type_is_raw_bytes(i16 noundef zeroext %19)
  %21 = icmp ne i32 %20, 0
  br i1 %21, label %39, label %22

22:                                               ; preds = %6
  %23 = load i16, ptr %14, align 2, !tbaa !18
  %24 = zext i16 %23 to i32
  %25 = and i32 %24, -12289
  %26 = icmp eq i32 %25, 16385
  br i1 %26, label %39, label %27

27:                                               ; preds = %22
  %28 = load i16, ptr %14, align 2, !tbaa !18
  %29 = zext i16 %28 to i32
  %30 = and i32 %29, -12289
  %31 = and i32 %30, -256
  %32 = icmp eq i32 %31, 16640
  br i1 %32, label %39, label %33

33:                                               ; preds = %27
  %34 = load i16, ptr %14, align 2, !tbaa !18
  %35 = zext i16 %34 to i32
  %36 = and i32 %35, -12289
  %37 = and i32 %36, -256
  %38 = icmp eq i32 %37, 16896
  br i1 %38, label %39, label %46

39:                                               ; preds = %33, %27, %22, %6
  %40 = load ptr, ptr %9, align 8, !tbaa !29
  %41 = load i64, ptr %10, align 8, !tbaa !20
  %42 = load ptr, ptr %11, align 8, !tbaa !29
  %43 = load i64, ptr %12, align 8, !tbaa !20
  %44 = load ptr, ptr %13, align 8, !tbaa !32
  %45 = call i32 @psa_export_key_buffer_internal(ptr noundef %40, i64 noundef %41, ptr noundef %42, i64 noundef %43, ptr noundef %44)
  store i32 %45, ptr %7, align 4
  store i32 1, ptr %15, align 4
  br label %47

46:                                               ; preds = %33
  store i32 -134, ptr %7, align 4
  store i32 1, ptr %15, align 4
  br label %47

47:                                               ; preds = %46, %39
  call void @llvm.lifetime.end.p0(i64 2, ptr %14) #8
  %48 = load i32, ptr %7, align 4
  ret i32 %48
}