; Function Attrs: mustprogress nofree norecurse nosync nounwind willreturn memory(argmem: readwrite) uwtable
define hidden range(i32 -138, 1) i32 @psa_export_key_internal(ptr noundef readonly captures(none) %0, ptr noundef readonly captures(none) %1, i64 noundef %2, ptr noundef writeonly captures(none) %3, i64 noundef %4, ptr noundef writeonly captures(none) %5) local_unnamed_addr #10 {
  %7 = load i16, ptr %0, align 4, !tbaa !24
  %.fr13 = freeze i16 %7
  %8 = and i16 %.fr13, -12289
  %9 = icmp eq i16 %8, 16385
  br i1 %9, label %13, label %switch.early.test

switch.early.test:                                ; preds = %6
  %10 = and i16 %.fr13, 28672
  switch i16 %10, label %11 [
    i16 8192, label %13
    i16 4096, label %13
  ]

11:                                               ; preds = %switch.early.test
  %12 = and i16 %.fr13, -12544
  switch i16 %12, label %psa_export_key_buffer_internal.exit [
    i16 16640, label %13
    i16 16896, label %13
  ]

13:                                               ; preds = %switch.early.test, %switch.early.test, %6, %11, %11
  %14 = icmp ugt i64 %2, %4
  br i1 %14, label %psa_export_key_buffer_internal.exit, label %15

15:                                               ; preds = %13
  tail call void @llvm.memcpy.p0.p0.i64(ptr align 1 %3, ptr readonly align 1 %1, i64 %2, i1 false)
  %16 = getelementptr inbounds nuw i8, ptr %3, i64 %2
  %17 = sub nuw i64 %4, %2
  tail call void @llvm.memset.p0.i64(ptr align 1 %16, i8 0, i64 %17, i1 false)
  store i64 %2, ptr %5, align 8, !tbaa !25
  br label %psa_export_key_buffer_internal.exit

psa_export_key_buffer_internal.exit:              ; preds = %15, %13, %11
  %.0 = phi i32 [ -134, %11 ], [ 0, %15 ], [ -138, %13 ]
  ret i32 %.0
}